target datalayout = "e-m:e-p270:32:32-p271:32:32-p272:64:64-i64:64-i128:128-f80:128-n8:16:32:64-S128"
target triple = "x86_64-pc-linux-gnu"

%struct.CeltFrame = type { ptr, [4 x ptr], [4 x ptr], ptr, [2 x %struct.CeltBlock], ptr, %struct.OpusDSP, i32, i32, i32, i32, i32, i32, i32, i32, i32, i32, i32, i32, [21 x i32], i32, i32, i32, i32, i32, i32, i32, i32, i32, i32, i32, i32, i32, float, i32, i32, i32, [21 x i32], [21 x i32], [21 x i32], [21 x i32], [21 x i32], [12 x i8] }
%struct.CeltBlock = type { [21 x float], [21 x float], [21 x float], [2 x [21 x float]], [21 x i8], [7 x i8], [2048 x float], [960 x float], [128 x float], [960 x float], i32, [3 x float], i32, [3 x float], i32, [3 x float], float, [12 x i8] }
%struct.OpusDSP = type { ptr, ptr }
%struct.OpusRangeCoder = type { %struct.GetBitContext, %struct.RawBitsContext, i32, i32, i32, [1287 x i8], ptr, i32, i32, i32 }
%struct.GetBitContext = type { ptr, ptr, i32, i32, i32 }
%struct.RawBitsContext = type { ptr, i32, i32, i32 }

@ff_celt_model_tapset = external hidden constant [0 x i16], align 2
@ff_celt_postfilter_taps = external hidden constant [3 x [3 x float]], align 16
@ff_log2_tab = external constant [256 x i8], align 16

; Function Attrs: alwaysinline nounwind willreturn memory(none) uwtable
define internal i32 @ff_log2_c(i32 noundef %0) #4 {
  %2 = alloca i32, align 4
  %3 = alloca i32, align 4
  store i32 %0, ptr %2, align 4, !tbaa !52
  call void @llvm.lifetime.start.p0(i64 4, ptr %3) #11
  store i32 0, ptr %3, align 4, !tbaa !52
  %4 = load i32, ptr %2, align 4, !tbaa !52
  %5 = and i32 %4, -65536
  %6 = icmp ne i32 %5, 0
  br i1 %6, label %7, label %12

7:                                                ; preds = %1
  %8 = load i32, ptr %2, align 4, !tbaa !52
  %9 = lshr i32 %8, 16
  store i32 %9, ptr %2, align 4, !tbaa !52
  %10 = load i32, ptr %3, align 4, !tbaa !52
  %11 = add nsw i32 %10, 16
  store i32 %11, ptr %3, align 4, !tbaa !52
  br label %12

12:                                               ; preds = %7, %1
  %13 = load i32, ptr %2, align 4, !tbaa !52
  %14 = and i32 %13, 65280
  %15 = icmp ne i32 %14, 0
  br i1 %15, label %16, label %21

16:                                               ; preds = %12
  %17 = load i32, ptr %2, align 4, !tbaa !52
  %18 = lshr i32 %17, 8
  store i32 %18, ptr %2, align 4, !tbaa !52
  %19 = load i32, ptr %3, align 4, !tbaa !52
  %20 = add nsw i32 %19, 8
  store i32 %20, ptr %3, align 4, !tbaa !52
  br label %21

21:                                               ; preds = %16, %12
  %22 = load i32, ptr %2, align 4, !tbaa !52
  %23 = zext i32 %22 to i64
  %24 = getelementptr inbounds nuw [256 x i8], ptr @ff_log2_tab, i64 0, i64 %23
  %25 = load i8, ptr %24, align 1, !tbaa !51
  %26 = zext i8 %25 to i32
  %27 = load i32, ptr %3, align 4, !tbaa !52
  %28 = add nsw i32 %27, %26
  store i32 %28, ptr %3, align 4, !tbaa !52
  %29 = load i32, ptr %3, align 4, !tbaa !52
  call void @llvm.lifetime.end.p0(i64 4, ptr %3) #11
  ret i32 %29
}

; Function Attrs: alwaysinline nounwind uwtable
define internal i32 @opus_rc_tell(ptr noundef %0) #8 {
  %2 = alloca ptr, align 8
  store ptr %0, ptr %2, align 8, !tbaa !109
  %3 = load ptr, ptr %2, align 8, !tbaa !109
  %4 = getelementptr inbounds nuw %struct.OpusRangeCoder, ptr %3, i32 0, i32 4
  %5 = load i32, ptr %4, align 8, !tbaa !158
  %6 = load ptr, ptr %2, align 8, !tbaa !109
  %7 = getelementptr inbounds nuw %struct.OpusRangeCoder, ptr %6, i32 0, i32 2
  %8 = load i32, ptr %7, align 8, !tbaa !162
  %9 = call i32 @ff_log2_c(i32 noundef %8) #12
  %10 = sub i32 %5, %9
  %11 = sub i32 %10, 1
  ret i32 %11
}

; Function Attrs: alwaysinline nounwind willreturn memory(none) uwtable
define internal i32 @av_clip_c(i32 noundef %0, i32 noundef %1, i32 noundef %2) #4 {
  %4 = alloca i32, align 4
  %5 = alloca i32, align 4
  %6 = alloca i32, align 4
  %7 = alloca i32, align 4
  store i32 %0, ptr %5, align 4, !tbaa !52
  store i32 %1, ptr %6, align 4, !tbaa !52
  store i32 %2, ptr %7, align 4, !tbaa !52
  %8 = load i32, ptr %5, align 4, !tbaa !52
  %9 = load i32, ptr %6, align 4, !tbaa !52
  %10 = icmp slt i32 %8, %9
  br i1 %10, label %11, label %13

11:                                               ; preds = %3
  %12 = load i32, ptr %6, align 4, !tbaa !52
  store i32 %12, ptr %4, align 4
  br label %21

13:                                               ; preds = %3
  %14 = load i32, ptr %5, align 4, !tbaa !52
  %15 = load i32, ptr %7, align 4, !tbaa !52
  %16 = icmp sgt i32 %14, %15
  br i1 %16, label %17, label %19

17:                                               ; preds = %13
  %18 = load i32, ptr %7, align 4, !tbaa !52
  store i32 %18, ptr %4, align 4
  br label %21

19:                                               ; preds = %13
  %20 = load i32, ptr %5, align 4, !tbaa !52
  store i32 %20, ptr %4, align 4
  br label %21

21:                                               ; preds = %19, %17, %11
  %22 = load i32, ptr %4, align 4
  ret i32 %22
}

; Function Attrs: nounwind uwtable
define internal void @celt_enc_quant_pfilter(ptr noundef %0, ptr noundef %1) #1 {
  %3 = alloca ptr, align 8
  %4 = alloca ptr, align 8
  %5 = alloca float, align 4
  %6 = alloca i32, align 4
  %7 = alloca i32, align 4
  %8 = alloca i32, align 4
  %9 = alloca i32, align 4
  %10 = alloca i32, align 4
  %11 = alloca i32, align 4
  %12 = alloca ptr, align 8
  store ptr %0, ptr %3, align 8, !tbaa !109
  store ptr %1, ptr %4, align 8, !tbaa !110
  call void @llvm.lifetime.start.p0(i64 4, ptr %5) #11
  %13 = load ptr, ptr %4, align 8, !tbaa !110
  %14 = getelementptr inbounds nuw %struct.CeltFrame, ptr %13, i32 0, i32 33
  %15 = load float, ptr %14, align 16, !tbaa !137
  store float %15, ptr %5, align 4, !tbaa !58
  call void @llvm.lifetime.start.p0(i64 4, ptr %6) #11
  call void @llvm.lifetime.start.p0(i64 4, ptr %7) #11
  %16 = load ptr, ptr %4, align 8, !tbaa !110
  %17 = getelementptr inbounds nuw %struct.CeltFrame, ptr %16, i32 0, i32 30
  %18 = load i32, ptr %17, align 4, !tbaa !138
  store i32 %18, ptr %7, align 4, !tbaa !52
  call void @llvm.lifetime.start.p0(i64 4, ptr %8) #11
  %19 = load ptr, ptr %4, align 8, !tbaa !110
  %20 = getelementptr inbounds nuw %struct.CeltFrame, ptr %19, i32 0, i32 31
  %21 = load i32, ptr %20, align 8, !tbaa !139
  store i32 %21, ptr %8, align 4, !tbaa !52
  call void @llvm.lifetime.start.p0(i64 4, ptr %9) #11
  %22 = load ptr, ptr %4, align 8, !tbaa !110
  %23 = getelementptr inbounds nuw %struct.CeltFrame, ptr %22, i32 0, i32 32
  %24 = load i32, ptr %23, align 4, !tbaa !140
  store i32 %24, ptr %9, align 4, !tbaa !52
  %25 = load ptr, ptr %3, align 8, !tbaa !109
  %26 = load ptr, ptr %4, align 8, !tbaa !110
  %27 = getelementptr inbounds nuw %struct.CeltFrame, ptr %26, i32 0, i32 15
  %28 = load i32, ptr %27, align 8, !tbaa !113
  call void @ff_opus_rc_enc_log(ptr noundef %25, i32 noundef %28, i32 noundef 1)
  %29 = load ptr, ptr %4, align 8, !tbaa !110
  %30 = getelementptr inbounds nuw %struct.CeltFrame, ptr %29, i32 0, i32 15
  %31 = load i32, ptr %30, align 8, !tbaa !113
  %32 = icmp ne i32 %31, 0
  br i1 %32, label %34, label %33

33:                                               ; preds = %2
  store i32 1, ptr %10, align 4
  br label %148

34:                                               ; preds = %2
  %35 = load i32, ptr %7, align 4, !tbaa !52
  %36 = icmp sgt i32 %35, 6
  br i1 %36, label %37, label %38

37:                                               ; preds = %34
  br label %40

38:                                               ; preds = %34
  %39 = load i32, ptr %7, align 4, !tbaa !52
  br label %40

40:                                               ; preds = %38, %37
  %41 = phi i32 [ 6, %37 ], [ %39, %38 ]
  store i32 %41, ptr %6, align 4, !tbaa !52
  %42 = load ptr, ptr %3, align 8, !tbaa !109
  %43 = load i32, ptr %6, align 4, !tbaa !52
  call void @ff_opus_rc_enc_uint(ptr noundef %42, i32 noundef %43, i32 noundef 6)
  %44 = load i32, ptr %6, align 4, !tbaa !52
  store i32 %44, ptr %7, align 4, !tbaa !52
  %45 = load i32, ptr %8, align 4, !tbaa !52
  %46 = load i32, ptr %7, align 4, !tbaa !52
  %47 = shl i32 16, %46
  %48 = sub nsw i32 %45, %47
  %49 = add nsw i32 %48, 1
  %50 = load i32, ptr %7, align 4, !tbaa !52
  %51 = add nsw i32 4, %50
  %52 = shl i32 1, %51
  %53 = sub nsw i32 %52, 1
  %54 = call i32 @av_clip_c(i32 noundef %49, i32 noundef 0, i32 noundef %53) #12
  store i32 %54, ptr %6, align 4, !tbaa !52
  %55 = load ptr, ptr %3, align 8, !tbaa !109
  %56 = load i32, ptr %8, align 4, !tbaa !52
  %57 = load i32, ptr %7, align 4, !tbaa !52
  %58 = add nsw i32 4, %57
  call void @ff_opus_rc_put_raw(ptr noundef %55, i32 noundef %56, i32 noundef %58)
  %59 = load i32, ptr %6, align 4, !tbaa !52
  %60 = load i32, ptr %7, align 4, !tbaa !52
  %61 = shl i32 16, %60
  %62 = add nsw i32 %59, %61
  %63 = sub nsw i32 %62, 1
  store i32 %63, ptr %8, align 4, !tbaa !52
  %64 = load float, ptr %5, align 4, !tbaa !58
  %65 = fdiv nsz float %64, 9.375000e-02
  %66 = fptosi float %65 to i32
  %67 = sub nsw i32 %66, 1
  %68 = icmp sgt i32 %67, 7
  br i1 %68, label %69, label %70

69:                                               ; preds = %40
  br label %75

70:                                               ; preds = %40
  %71 = load float, ptr %5, align 4, !tbaa !58
  %72 = fdiv nsz float %71, 9.375000e-02
  %73 = fptosi float %72 to i32
  %74 = sub nsw i32 %73, 1
  br label %75

75:                                               ; preds = %70, %69
  %76 = phi i32 [ 7, %69 ], [ %74, %70 ]
  store i32 %76, ptr %6, align 4, !tbaa !52
  %77 = load ptr, ptr %3, align 8, !tbaa !109
  %78 = load i32, ptr %6, align 4, !tbaa !52
  call void @ff_opus_rc_put_raw(ptr noundef %77, i32 noundef %78, i32 noundef 3)
  %79 = load i32, ptr %6, align 4, !tbaa !52
  %80 = add nsw i32 %79, 1
  %81 = sitofp i32 %80 to float
  %82 = fmul nsz float 9.375000e-02, %81
  store float %82, ptr %5, align 4, !tbaa !58
  %83 = load ptr, ptr %3, align 8, !tbaa !109
  %84 = call i32 @opus_rc_tell(ptr noundef %83)
  %85 = add i32 %84, 2
  %86 = load ptr, ptr %4, align 8, !tbaa !110
  %87 = getelementptr inbounds nuw %struct.CeltFrame, ptr %86, i32 0, i32 34
  %88 = load i32, ptr %87, align 4, !tbaa !88
  %89 = icmp ule i32 %85, %88
  br i1 %89, label %90, label %93

90:                                               ; preds = %75
  %91 = load ptr, ptr %3, align 8, !tbaa !109
  %92 = load i32, ptr %9, align 4, !tbaa !52
  call void @ff_opus_rc_enc_cdf(ptr noundef %91, i32 noundef %92, ptr noundef @ff_celt_model_tapset)
  br label %94

93:                                               ; preds = %75
  store i32 0, ptr %9, align 4, !tbaa !52
  br label %94

94:                                               ; preds = %93, %90
  call void @llvm.lifetime.start.p0(i64 4, ptr %11) #11
  store i32 0, ptr %11, align 4, !tbaa !52
  br label %95

95:                                               ; preds = %144, %94
  %96 = load i32, ptr %11, align 4, !tbaa !52
  %97 = icmp slt i32 %96, 2
  br i1 %97, label %99, label %98

98:                                               ; preds = %95
  store i32 2, ptr %10, align 4
  call void @llvm.lifetime.end.p0(i64 4, ptr %11) #11
  br label %147

99:                                               ; preds = %95
  call void @llvm.lifetime.start.p0(i64 8, ptr %12) #11
  %100 = load ptr, ptr %4, align 8, !tbaa !110
  %101 = getelementptr inbounds nuw %struct.CeltFrame, ptr %100, i32 0, i32 4
  %102 = load i32, ptr %11, align 4, !tbaa !52
  %103 = sext i32 %102 to i64
  %104 = getelementptr inbounds [2 x %struct.CeltBlock], ptr %101, i64 0, i64 %103
  store ptr %104, ptr %12, align 8, !tbaa !121
  %105 = load i32, ptr %8, align 4, !tbaa !52
  %106 = icmp sgt i32 %105, 15
  br i1 %106, label %107, label %109

107:                                              ; preds = %99
  %108 = load i32, ptr %8, align 4, !tbaa !52
  br label %110

109:                                              ; preds = %99
  br label %110

110:                                              ; preds = %109, %107
  %111 = phi i32 [ %108, %107 ], [ 15, %109 ]
  %112 = load ptr, ptr %12, align 8, !tbaa !121
  %113 = getelementptr inbounds nuw %struct.CeltBlock, ptr %112, i32 0, i32 10
  store i32 %111, ptr %113, align 16, !tbaa !141
  %114 = load float, ptr %5, align 4, !tbaa !58
  %115 = load i32, ptr %9, align 4, !tbaa !52
  %116 = sext i32 %115 to i64
  %117 = getelementptr inbounds [3 x [3 x float]], ptr @ff_celt_postfilter_taps, i64 0, i64 %116
  %118 = getelementptr inbounds [3 x float], ptr %117, i64 0, i64 0
  %119 = load float, ptr %118, align 4, !tbaa !58
  %120 = fmul nsz float %114, %119
  %121 = load ptr, ptr %12, align 8, !tbaa !121
  %122 = getelementptr inbounds nuw %struct.CeltBlock, ptr %121, i32 0, i32 11
  %123 = getelementptr inbounds [3 x float], ptr %122, i64 0, i64 0
  store float %120, ptr %123, align 4, !tbaa !58
  %124 = load float, ptr %5, align 4, !tbaa !58
  %125 = load i32, ptr %9, align 4, !tbaa !52
  %126 = sext i32 %125 to i64
  %127 = getelementptr inbounds [3 x [3 x float]], ptr @ff_celt_postfilter_taps, i64 0, i64 %126
  %128 = getelementptr inbounds [3 x float], ptr %127, i64 0, i64 1
  %129 = load float, ptr %128, align 4, !tbaa !58
  %130 = fmul nsz float %124, %129
  %131 = load ptr, ptr %12, align 8, !tbaa !121
  %132 = getelementptr inbounds nuw %struct.CeltBlock, ptr %131, i32 0, i32 11
  %133 = getelementptr inbounds [3 x float], ptr %132, i64 0, i64 1
  store float %130, ptr %133, align 4, !tbaa !58
  %134 = load float, ptr %5, align 4, !tbaa !58
  %135 = load i32, ptr %9, align 4, !tbaa !52
  %136 = sext i32 %135 to i64
  %137 = getelementptr inbounds [3 x [3 x float]], ptr @ff_celt_postfilter_taps, i64 0, i64 %136
  %138 = getelementptr inbounds [3 x float], ptr %137, i64 0, i64 2
  %139 = load float, ptr %138, align 4, !tbaa !58
  %140 = fmul nsz float %134, %139
  %141 = load ptr, ptr %12, align 8, !tbaa !121
  %142 = getelementptr inbounds nuw %struct.CeltBlock, ptr %141, i32 0, i32 11
  %143 = getelementptr inbounds [3 x float], ptr %142, i64 0, i64 2
  store float %140, ptr %143, align 4, !tbaa !58
  call void @llvm.lifetime.end.p0(i64 8, ptr %12) #11
  br label %144

144:                                              ; preds = %110
  %145 = load i32, ptr %11, align 4, !tbaa !52
  %146 = add nsw i32 %145, 1
  store i32 %146, ptr %11, align 4, !tbaa !52
  br label %95, !llvm.loop !142

147:                                              ; preds = %98
  store i32 0, ptr %10, align 4
  br label %148

148:                                              ; preds = %147, %33
  call void @llvm.lifetime.end.p0(i64 4, ptr %9) #11
  call void @llvm.lifetime.end.p0(i64 4, ptr %8) #11
  call void @llvm.lifetime.end.p0(i64 4, ptr %7) #11
  call void @llvm.lifetime.end.p0(i64 4, ptr %6) #11
  call void @llvm.lifetime.end.p0(i64 4, ptr %5) #11
  %149 = load i32, ptr %10, align 4
  switch i32 %149, label %151 [
    i32 0, label %150
    i32 1, label %150
  ]

150:                                              ; preds = %148, %148
  ret void

151:                                              ; preds = %148
  unreachable
}