; Function Attrs: nounwind uwtable
define internal fastcc void @celt_enc_quant_pfilter(ptr noundef %0, ptr noundef captures(none) %1) unnamed_addr #1 {
  %3 = getelementptr inbounds nuw i8, ptr %1, i64 34080
  %4 = load float, ptr %3, align 16, !tbaa !142
  %5 = getelementptr inbounds nuw i8, ptr %1, i64 34068
  %6 = load i32, ptr %5, align 4, !tbaa !143
  %7 = getelementptr inbounds nuw i8, ptr %1, i64 34072
  %8 = load i32, ptr %7, align 8, !tbaa !144
  %9 = getelementptr inbounds nuw i8, ptr %1, i64 34076
  %10 = load i32, ptr %9, align 4, !tbaa !145
  %11 = getelementptr inbounds nuw i8, ptr %1, i64 33928
  %12 = load i32, ptr %11, align 8, !tbaa !101
  tail call void @ff_opus_rc_enc_log(ptr noundef %0, i32 noundef %12, i32 noundef 1) #9
  %13 = load i32, ptr %11, align 8, !tbaa !101
  %.not = icmp eq i32 %13, 0
  br i1 %.not, label %.loopexit, label %14

14:                                               ; preds = %2
  %15 = tail call i32 @llvm.smin.i32(i32 %6, i32 6)
  tail call void @ff_opus_rc_enc_uint(ptr noundef %0, i32 noundef %15, i32 noundef 6) #9
  %16 = shl nuw nsw i32 16, %15
  %17 = sub nsw i32 %8, %16
  %18 = add nsw i32 %15, 4
  %notmask = shl nsw i32 -1, %18
  %19 = icmp slt i32 %17, -1
  %20 = sub nsw i32 -2, %17
  %21 = tail call i32 @llvm.smax.i32(i32 %notmask, i32 %20)
  %..i = xor i32 %21, -1
  %.0.i = select i1 %19, i32 0, i32 %..i
  tail call void @ff_opus_rc_put_raw(ptr noundef %0, i32 noundef %8, i32 noundef %18) #9
  %22 = add nsw i32 %.0.i, %16
  %23 = fdiv nsz float %4, 9.375000e-02
  %24 = fptosi float %23 to i32
  %25 = tail call i32 @llvm.smin.i32(i32 %24, i32 8)
  %26 = add nsw i32 %25, -1
  tail call void @ff_opus_rc_put_raw(ptr noundef %0, i32 noundef %26, i32 noundef 3) #9
  %27 = sitofp i32 %25 to float
  %28 = fmul nsz float %27, 9.375000e-02
  %29 = getelementptr inbounds nuw i8, ptr %0, i64 64
  %30 = load i32, ptr %29, align 8, !tbaa !104
  %31 = getelementptr inbounds nuw i8, ptr %0, i64 56
  %32 = load i32, ptr %31, align 8, !tbaa !108
  %.not.i = icmp ult i32 %32, 65536
  %33 = lshr i32 %32, 16
  %spec.select.i = select i1 %.not.i, i32 %32, i32 %33
  %spec.select12.i = select i1 %.not.i, i32 0, i32 16
  %.not11.i = icmp samesign ult i32 %spec.select.i, 256
  %34 = lshr i32 %spec.select.i, 8
  %35 = or disjoint i32 %spec.select12.i, 8
  %.110.i = select i1 %.not11.i, i32 %spec.select.i, i32 %34
  %.1.i = select i1 %.not11.i, i32 %spec.select12.i, i32 %35
  %36 = zext nneg i32 %.110.i to i64
  %37 = getelementptr inbounds nuw [256 x i8], ptr @ff_log2_tab, i64 0, i64 %36
  %38 = load i8, ptr %37, align 1, !tbaa !48
  %39 = zext i8 %38 to i32
  %40 = add nuw nsw i32 %.1.i, %39
  %41 = xor i32 %40, -1
  %42 = add i32 %30, 2
  %43 = add i32 %42, %41
  %44 = getelementptr inbounds nuw i8, ptr %1, i64 34084
  %45 = load i32, ptr %44, align 4, !tbaa !95
  %.not45 = icmp ugt i32 %43, %45
  br i1 %.not45, label %.loopexit.loopexit.critedge, label %46

46:                                               ; preds = %14
  tail call void @ff_opus_rc_enc_cdf(ptr noundef nonnull %0, i32 noundef %10, ptr noundef nonnull @ff_celt_model_tapset) #9
  %47 = sext i32 %10 to i64
  br label %.loopexit.loopexit.critedge

.loopexit.loopexit.critedge:                      ; preds = %14, %46
  %.044 = phi i64 [ %47, %46 ], [ 0, %14 ]
  %48 = tail call i32 @llvm.smax.i32(i32 %22, i32 16)
  %49 = add nsw i32 %48, -1
  %50 = getelementptr inbounds [3 x [3 x float]], ptr @ff_celt_postfilter_taps, i64 0, i64 %.044
  %51 = load float, ptr %50, align 4, !tbaa !56
  %52 = fmul nsz float %28, %51
  %53 = getelementptr inbounds nuw i8, ptr %50, i64 4
  %54 = load float, ptr %53, align 4, !tbaa !56
  %55 = fmul nsz float %28, %54
  %56 = getelementptr inbounds nuw i8, ptr %50, i64 8
  %57 = load float, ptr %56, align 4, !tbaa !56
  %58 = fmul nsz float %28, %57
  %59 = getelementptr inbounds nuw i8, ptr %1, i64 16912
  store i32 %49, ptr %59, align 16, !tbaa !146
  %60 = getelementptr inbounds nuw i8, ptr %1, i64 16916
  store float %52, ptr %60, align 4, !tbaa !56
  %61 = getelementptr inbounds nuw i8, ptr %1, i64 16920
  store float %55, ptr %61, align 4, !tbaa !56
  %62 = getelementptr inbounds nuw i8, ptr %1, i64 16924
  store float %58, ptr %62, align 4, !tbaa !56
  %63 = getelementptr inbounds nuw i8, ptr %1, i64 33808
  store i32 %49, ptr %63, align 16, !tbaa !146
  %64 = getelementptr inbounds nuw i8, ptr %1, i64 33812
  store float %52, ptr %64, align 4, !tbaa !56
  %65 = getelementptr inbounds nuw i8, ptr %1, i64 33816
  store float %55, ptr %65, align 4, !tbaa !56
  %66 = getelementptr inbounds nuw i8, ptr %1, i64 33820
  store float %58, ptr %66, align 4, !tbaa !56
  br label %.loopexit

.loopexit:                                        ; preds = %.loopexit.loopexit.critedge, %2
  ret void
}